Certificate:
    Data:
        Version: 3 (0x2)
        Serial Number: 1 (0x1)
    Signature Algorithm: sha256WithRSAEncryption
        Issuer: C=US, ST=CA, L=SanFrancisco, O=Fort-Funston, OU=MyOrganizationalUnit, CN=Fort-Funston CA/name=EasyRSA/emailAddress=me@myhost.mydomain
        Validity
            Not Before: Jul  6 16:01:31 2017 GMT
            Not After : Jul  4 16:01:31 2027 GMT
        Subject: C=US, ST=CA, L=SanFrancisco, O=Fort-Funston, OU=MyOrganizationalUnit, CN=server/name=EasyRSA/emailAddress=me@myhost.mydomain
        Subject Public Key Info:
            Public Key Algorithm: rsaEncryption
                Public-Key: (2048 bit)
                Modulus:
                    00:be:ac:75:62:d5:a2:80:4a:b6:35:95:d2:8f:2a:
                    bb:5c:96:b4:ad:58:1a:e8:9e:01:3c:b0:81:84:65:
                    70:14:d3:01:f7:f2:32:29:de:13:40:90:12:6a:9b:
                    8a:91:1e:59:e3:33:ac:2d:b6:d2:aa:77:5a:30:fa:
                    da:97:86:7a:21:16:47:f1:fe:23:98:fa:e0:a7:7c:
                    7b:42:87:ed:0f:fd:45:ef:4b:f7:42:af:8a:3f:5a:
                    70:69:71:5d:27:f7:ad:d9:a9:27:b1:85:00:8f:62:
                    db:8a:d7:a1:39:be:c0:a2:4c:fd:58:6f:50:ab:5d:
                    8f:85:48:a6:52:52:fb:ea:61:59:25:ff:3b:51:76:
                    8c:80:da:d0:6d:51:78:54:0d:9e:74:e9:5e:19:bc:
                    94:c8:36:1c:7c:1e:03:15:90:c7:9e:ee:14:f9:6e:
                    d5:bd:1e:9c:95:b0:e2:71:e9:8d:0b:af:31:21:6f:
                    95:74:4e:5e:2a:48:bd:60:71:25:8c:19:58:9e:ac:
                    6a:ad:be:d9:03:99:0f:1f:c4:01:56:e9:46:2e:28:
                    b8:e4:b0:a0:00:1e:4c:c3:42:05:2f:cf:42:c5:d1:
                    a0:1f:6e:ba:22:b3:4d:37:b5:b7:87:8b:f5:29:6d:
                    61:ac:e2:ce:9b:d3:27:88:ab:3d:dd:23:af:57:a5:
                    9b:39
                Exponent: 65537 (0x10001)
        X509v3 extensions:
            X509v3 Basic Constraints: 
                CA:FALSE
            Netscape Cert Type: 
                SSL Server
            Netscape Comment: 
                Easy-RSA Generated Server Certificate
            X509v3 Subject Key Identifier: 
                67:79:12:1C:C0:02:4B:FC:6A:81:A9:D5:AD:22:4C:4F:BF:B7:33:5F
            X509v3 Authority Key Identifier: 
                keyid:2D:10:EE:67:30:B2:CF:2F:2B:AF:48:70:AF:58:EA:19:93:1A:85:E4
                DirName:/C=US/ST=CA/L=SanFrancisco/O=Fort-Funston/OU=MyOrganizationalUnit/CN=Fort-Funston CA/name=EasyRSA/emailAddress=me@myhost.mydomain
                serial:83:D0:3B:5D:73:B7:EC:EA

            X509v3 Extended Key Usage: 
                TLS Web Server Authentication
            X509v3 Key Usage: 
                Digital Signature, Key Encipherment
    Signature Algorithm: sha256WithRSAEncryption
         ae:9b:e0:83:3e:ae:d8:eb:67:e3:2e:e7:9c:0f:49:0e:85:39:
         02:07:ca:ad:24:63:09:93:61:a4:49:5d:18:3c:ad:c7:fb:74:
         9d:19:2f:c1:97:ac:c2:02:d8:e0:93:51:aa:9c:14:4c:0d:17:
         1c:de:b9:97:4c:ca:ad:cd:37:98:f2:5b:1f:9e:20:86:fc:49:
         66:6a:a0:9d:ed:fd:65:1e:83:5e:0d:fe:a8:dc:5a:53:0c:9c:
         b0:d3:bc:b2:67:fc:44:6c:01:a7:90:ea:7f:31:0b:87:45:97:
         a9:4d:77:28:60:3f:b2:a4:b8:cc:f2:a5:99:fa:d2:a1:d2:d3:
         d3:5d:19:7d:bf:16:2a:22:e8:91:35:52:5a:a0:90:be:f2:13:
         b8:23:75:af:a6:4f:fb:f8:d4:6f:78:46:77:14:73:e2:04:dc:
         e4:dd:28:6d:4a:1d:2c:13:5a:71:54:3d:d8:43:5a:41:20:54:
         e2:7a:e0:e3:ba:db:5f:17:17:e7:e2:ff:64:95:ee:df:45:c4:
         71:5b:c0:40:2f:43:32:b3:1e:a7:5e:8a:48:61:0a:fc:3f:f6:
         82:6c:fe:b8:87:4f:13:f5:43:68:9e:5a:45:8b:f4:f6:75:ec:
         80:2e:ab:7b:2f:39:c9:5f:30:0d:92:87:78:83:1b:39:f1:e0:
         38:c7:43:ee
-----BEGIN CERTIFICATE-----
MIIFaTCCBFGgAwIBAgIBATANBgkqhkiG9w0BAQsFADCBtjELMAkGA1UEBhMCVVMx
CzAJBgNVBAgTAkNBMRUwEwYDVQQHEwxTYW5GcmFuY2lzY28xFTATBgNVBAoTDEZv
cnQtRnVuc3RvbjEdMBsGA1UECxMUTXlPcmdhbml6YXRpb25hbFVuaXQxGDAWBgNV
BAMTD0ZvcnQtRnVuc3RvbiBDQTEQMA4GA1UEKRMHRWFzeVJTQTEhMB8GCSqGSIb3
DQEJARYSbWVAbXlob3N0Lm15ZG9tYWluMB4XDTE3MDcwNjE2MDEzMVoXDTI3MDcw
NDE2MDEzMVowga0xCzAJBgNVBAYTAlVTMQswCQYDVQQIEwJDQTEVMBMGA1UEBxMM
U2FuRnJhbmNpc2NvMRUwEwYDVQQKEwxGb3J0LUZ1bnN0b24xHTAbBgNVBAsTFE15
T3JnYW5pemF0aW9uYWxVbml0MQ8wDQYDVQQDEwZzZXJ2ZXIxEDAOBgNVBCkTB0Vh
c3lSU0ExITAfBgkqhkiG9w0BCQEWEm1lQG15aG9zdC5teWRvbWFpbjCCASIwDQYJ
KoZIhvcNAQEBBQADggEPADCCAQoCggEBAL6sdWLVooBKtjWV0o8qu1yWtK1YGuie
ATywgYRlcBTTAffyMineE0CQEmqbipEeWeMzrC220qp3WjD62peGeiEWR/H+I5j6
4Kd8e0KH7Q/9Re9L90Kvij9acGlxXSf3rdmpJ7GFAI9i24rXoTm+wKJM/VhvUKtd
j4VIplJS++phWSX/O1F2jIDa0G1ReFQNnnTpXhm8lMg2HHweAxWQx57uFPlu1b0e
nJWw4nHpjQuvMSFvlXROXipIvWBxJYwZWJ6saq2+2QOZDx/EAVbpRi4ouOSwoAAe
TMNCBS/PQsXRoB9uuiKzTTe1t4eL9SltYazizpvTJ4irPd0jr1elmzkCAwEAAaOC
AYcwggGDMAkGA1UdEwQCMAAwEQYJYIZIAYb4QgEBBAQDAgZAMDQGCWCGSAGG+EIB
DQQnFiVFYXN5LVJTQSBHZW5lcmF0ZWQgU2VydmVyIENlcnRpZmljYXRlMB0GA1Ud
DgQWBBRneRIcwAJL/GqBqdWtIkxPv7czXzCB6wYDVR0jBIHjMIHggBQtEO5nMLLP
LyuvSHCvWOoZkxqF5KGBvKSBuTCBtjELMAkGA1UEBhMCVVMxCzAJBgNVBAgTAkNB
MRUwEwYDVQQHEwxTYW5GcmFuY2lzY28xFTATBgNVBAoTDEZvcnQtRnVuc3RvbjEd
MBsGA1UECxMUTXlPcmdhbml6YXRpb25hbFVuaXQxGDAWBgNVBAMTD0ZvcnQtRnVu
c3RvbiBDQTEQMA4GA1UEKRMHRWFzeVJTQTEhMB8GCSqGSIb3DQEJARYSbWVAbXlo
b3N0Lm15ZG9tYWluggkAg9A7XXO37OowEwYDVR0lBAwwCgYIKwYBBQUHAwEwCwYD
VR0PBAQDAgWgMA0GCSqGSIb3DQEBCwUAA4IBAQCum+CDPq7Y62fjLuecD0kOhTkC
B8qtJGMJk2GkSV0YPK3H+3SdGS/Bl6zCAtjgk1GqnBRMDRcc3rmXTMqtzTeY8lsf
niCG/ElmaqCd7f1lHoNeDf6o3FpTDJyw07yyZ/xEbAGnkOp/MQuHRZepTXcoYD+y
pLjM8qWZ+tKh0tPTXRl9vxYqIuiRNVJaoJC+8hO4I3Wvpk/7+NRveEZ3FHPiBNzk
3ShtSh0sE1pxVD3YQ1pBIFTieuDjuttfFxfn4v9kle7fRcRxW8BAL0Mysx6nXopI
YQr8P/aCbP64h08T9UNonlpFi/T2deyALqt7LznJXzANkod4gxs58eA4x0Pu
-----END CERTIFICATE-----
