Certificate:
    Data:
        Version: 3 (0x2)
        Serial Number: 1 (0x1)
    Signature Algorithm: sha256WithRSAEncryption
        Issuer: C=US, ST=CA, L=SanFrancisco, O=Fort-Funston, OU=MyOrganizationalUnit, CN=Fort-Funston CA/name=EasyRSA/emailAddress=me@myhost.mydomain
        Validity
            Not Before: Jul  6 15:01:33 2017 GMT
            Not After : Jul  4 15:01:33 2027 GMT
        Subject: C=US, ST=CA, L=SanFrancisco, O=Fort-Funston, OU=MyOrganizationalUnit, CN=server/name=EasyRSA/emailAddress=me@myhost.mydomain
        Subject Public Key Info:
            Public Key Algorithm: rsaEncryption
                Public-Key: (2048 bit)
                Modulus:
                    00:b1:35:0f:77:0a:9a:90:f9:11:2c:5a:c8:c5:76:
                    5e:e4:05:1e:64:d6:5b:ea:17:a2:2b:57:10:15:1f:
                    4d:8d:90:50:9f:6e:11:79:17:08:3d:8a:ee:45:89:
                    99:9d:15:16:47:09:47:71:20:bb:13:b3:9c:1d:f8:
                    10:58:7a:67:55:e6:c0:31:4f:70:8f:23:67:89:f8:
                    ff:f1:30:17:b0:6c:84:02:2e:da:70:b9:02:5f:4e:
                    a5:4e:dc:11:e9:e7:d7:1b:fb:2b:45:1f:92:31:d6:
                    50:88:76:9d:27:6f:6b:f4:c4:f3:8b:8e:23:76:d2:
                    bf:03:74:fd:56:12:79:a4:dd:fb:d2:e7:65:84:d4:
                    e2:2a:d0:0e:26:f9:d9:dc:e2:a7:c4:97:02:5f:69:
                    0d:86:0a:e5:c4:44:ef:01:ac:32:56:b8:de:e8:3c:
                    a4:5a:99:2e:f1:1d:fc:8e:82:31:fa:b8:02:5f:ec:
                    83:1f:d7:80:13:36:ef:b4:7d:ee:b7:7d:bc:44:1b:
                    82:fd:38:9f:15:fe:32:2c:bf:88:fd:0e:4a:f3:39:
                    69:03:11:d6:e4:20:90:ed:6f:76:51:e8:00:47:4a:
                    89:7e:d8:43:18:da:fc:b2:2c:08:ce:d6:a2:4a:3a:
                    30:94:20:2e:c2:8d:90:58:de:62:de:b4:8a:7c:c2:
                    39:55
                Exponent: 65537 (0x10001)
        X509v3 extensions:
            X509v3 Basic Constraints: 
                CA:FALSE
            Netscape Cert Type: 
                SSL Server
            Netscape Comment: 
                Easy-RSA Generated Server Certificate
            X509v3 Subject Key Identifier: 
                46:76:15:E6:AF:FB:1B:34:6C:7F:14:25:42:5C:B1:B0:90:7B:66:D9
            X509v3 Authority Key Identifier: 
                keyid:A7:BD:CB:C6:CE:CF:89:ED:E8:7C:2E:13:80:84:97:01:8C:95:39:40
                DirName:/C=US/ST=CA/L=SanFrancisco/O=Fort-Funston/OU=MyOrganizationalUnit/CN=Fort-Funston CA/name=EasyRSA/emailAddress=me@myhost.mydomain
                serial:B1:0D:6E:54:C1:4B:51:D7

            X509v3 Extended Key Usage: 
                TLS Web Server Authentication
            X509v3 Key Usage: 
                Digital Signature, Key Encipherment
    Signature Algorithm: sha256WithRSAEncryption
         a7:51:0c:01:07:fc:22:c0:fb:f5:e5:2f:de:03:aa:b3:6d:c6:
         c0:f1:7e:c8:18:0e:f4:20:88:a8:18:5c:12:f0:67:9e:14:5e:
         f5:40:8f:b7:c5:7b:9b:db:bb:b3:a0:98:1f:27:60:87:8f:4e:
         07:82:9f:82:3e:9f:57:83:f1:cd:a7:23:a2:c0:eb:25:9e:9e:
         fa:b6:34:14:4c:8a:52:a4:e4:af:a6:35:13:0f:91:d3:bc:17:
         93:ea:3f:21:7a:d8:24:7b:b3:05:88:cc:89:23:68:f1:25:dc:
         ce:60:98:2b:3f:f0:0b:8c:1a:36:7e:4d:c9:df:a3:30:bd:d9:
         2d:70:60:dd:ce:51:bf:af:ec:5c:e2:67:19:38:2e:21:78:df:
         af:de:1d:70:04:ce:f3:95:c3:c9:41:ad:25:d9:91:8a:73:bb:
         59:93:7c:ef:a6:e2:bd:6f:e8:f0:b4:77:af:6c:91:39:8e:96:
         b8:9d:6d:34:75:84:90:de:af:c3:68:4e:ff:f4:d1:87:0a:99:
         54:43:ca:97:9d:cc:c2:75:3e:f5:ca:3d:42:26:cb:d7:f5:83:
         7f:98:2f:75:e9:f5:32:14:90:94:36:d6:fe:83:bb:8d:e0:22:
         67:2a:01:c8:1a:1c:00:1f:9c:ac:0d:3b:95:11:a2:e7:76:b2:
         e0:2f:ab:fd
-----BEGIN CERTIFICATE-----
MIIFaTCCBFGgAwIBAgIBATANBgkqhkiG9w0BAQsFADCBtjELMAkGA1UEBhMCVVMx
CzAJBgNVBAgTAkNBMRUwEwYDVQQHEwxTYW5GcmFuY2lzY28xFTATBgNVBAoTDEZv
cnQtRnVuc3RvbjEdMBsGA1UECxMUTXlPcmdhbml6YXRpb25hbFVuaXQxGDAWBgNV
BAMTD0ZvcnQtRnVuc3RvbiBDQTEQMA4GA1UEKRMHRWFzeVJTQTEhMB8GCSqGSIb3
DQEJARYSbWVAbXlob3N0Lm15ZG9tYWluMB4XDTE3MDcwNjE1MDEzM1oXDTI3MDcw
NDE1MDEzM1owga0xCzAJBgNVBAYTAlVTMQswCQYDVQQIEwJDQTEVMBMGA1UEBxMM
U2FuRnJhbmNpc2NvMRUwEwYDVQQKEwxGb3J0LUZ1bnN0b24xHTAbBgNVBAsTFE15
T3JnYW5pemF0aW9uYWxVbml0MQ8wDQYDVQQDEwZzZXJ2ZXIxEDAOBgNVBCkTB0Vh
c3lSU0ExITAfBgkqhkiG9w0BCQEWEm1lQG15aG9zdC5teWRvbWFpbjCCASIwDQYJ
KoZIhvcNAQEBBQADggEPADCCAQoCggEBALE1D3cKmpD5ESxayMV2XuQFHmTWW+oX
oitXEBUfTY2QUJ9uEXkXCD2K7kWJmZ0VFkcJR3EguxOznB34EFh6Z1XmwDFPcI8j
Z4n4//EwF7BshAIu2nC5Al9OpU7cEenn1xv7K0UfkjHWUIh2nSdva/TE84uOI3bS
vwN0/VYSeaTd+9LnZYTU4irQDib52dzip8SXAl9pDYYK5cRE7wGsMla43ug8pFqZ
LvEd/I6CMfq4Al/sgx/XgBM277R97rd9vEQbgv04nxX+Miy/iP0OSvM5aQMR1uQg
kO1vdlHoAEdKiX7YQxja/LIsCM7Woko6MJQgLsKNkFjeYt60inzCOVUCAwEAAaOC
AYcwggGDMAkGA1UdEwQCMAAwEQYJYIZIAYb4QgEBBAQDAgZAMDQGCWCGSAGG+EIB
DQQnFiVFYXN5LVJTQSBHZW5lcmF0ZWQgU2VydmVyIENlcnRpZmljYXRlMB0GA1Ud
DgQWBBRGdhXmr/sbNGx/FCVCXLGwkHtm2TCB6wYDVR0jBIHjMIHggBSnvcvGzs+J
7eh8LhOAhJcBjJU5QKGBvKSBuTCBtjELMAkGA1UEBhMCVVMxCzAJBgNVBAgTAkNB
MRUwEwYDVQQHEwxTYW5GcmFuY2lzY28xFTATBgNVBAoTDEZvcnQtRnVuc3RvbjEd
MBsGA1UECxMUTXlPcmdhbml6YXRpb25hbFVuaXQxGDAWBgNVBAMTD0ZvcnQtRnVu
c3RvbiBDQTEQMA4GA1UEKRMHRWFzeVJTQTEhMB8GCSqGSIb3DQEJARYSbWVAbXlo
b3N0Lm15ZG9tYWluggkAsQ1uVMFLUdcwEwYDVR0lBAwwCgYIKwYBBQUHAwEwCwYD
VR0PBAQDAgWgMA0GCSqGSIb3DQEBCwUAA4IBAQCnUQwBB/wiwPv15S/eA6qzbcbA
8X7IGA70IIioGFwS8GeeFF71QI+3xXub27uzoJgfJ2CHj04Hgp+CPp9Xg/HNpyOi
wOslnp76tjQUTIpSpOSvpjUTD5HTvBeT6j8hetgke7MFiMyJI2jxJdzOYJgrP/AL
jBo2fk3J36MwvdktcGDdzlG/r+xc4mcZOC4heN+v3h1wBM7zlcPJQa0l2ZGKc7tZ
k3zvpuK9b+jwtHevbJE5jpa4nW00dYSQ3q/DaE7/9NGHCplUQ8qXnczCdT71yj1C
JsvX9YN/mC916fUyFJCUNtb+g7uN4CJnKgHIGhwAH5ysDTuVEaLndrLgL6v9
-----END CERTIFICATE-----
